target datalayout = "e-m:e-p270:32:32-p271:32:32-p272:64:64-i64:64-i128:128-f80:128-n8:16:32:64-S128"
target triple = "x86_64-pc-linux-gnu"

@.str = private unnamed_addr constant [26 x i8] c"Parameter '%s' is invalid\00", align 1
@.str.5 = private unnamed_addr constant [7 x i8] c"folder\00", align 1
@CachedUserFolders = internal global [11 x ptr] zeroinitializer, align 16

; Function Attrs: nounwind uwtable
define hidden ptr @SDL_GetUserFolder_REAL(i32 noundef %0) #0 {
  %2 = alloca ptr, align 8
  %3 = alloca i32, align 4
  %4 = alloca i32, align 4
  %5 = alloca i32, align 4
  store i32 %0, ptr %3, align 4
  call void @llvm.lifetime.start.p0(i64 4, ptr %4) #5
  %6 = load i32, ptr %3, align 4
  store i32 %6, ptr %4, align 4
  %7 = load i32, ptr %4, align 4
  %8 = icmp slt i32 %7, 0
  br i1 %8, label %13, label %9

9:                                                ; preds = %1
  %10 = load i32, ptr %4, align 4
  %11 = sext i32 %10 to i64
  %12 = icmp uge i64 %11, 11
  br i1 %12, label %13, label %15

13:                                               ; preds = %9, %1
  %14 = call zeroext i1 (ptr, ...) @SDL_SetError_REAL(ptr noundef @.str, ptr noundef @.str.5)
  store ptr null, ptr %2, align 8
  store i32 1, ptr %5, align 4
  br label %32

15:                                               ; preds = %9
  %16 = load i32, ptr %4, align 4
  %17 = sext i32 %16 to i64
  %18 = getelementptr inbounds [11 x ptr], ptr @CachedUserFolders, i64 0, i64 %17
  %19 = load ptr, ptr %18, align 8
  %20 = icmp ne ptr %19, null
  br i1 %20, label %27, label %21

21:                                               ; preds = %15
  %22 = load i32, ptr %3, align 4
  %23 = call ptr @SDL_SYS_GetUserFolder(i32 noundef %22)
  %24 = load i32, ptr %4, align 4
  %25 = sext i32 %24 to i64
  %26 = getelementptr inbounds [11 x ptr], ptr @CachedUserFolders, i64 0, i64 %25
  store ptr %23, ptr %26, align 8
  br label %27

27:                                               ; preds = %21, %15
  %28 = load i32, ptr %4, align 4
  %29 = sext i32 %28 to i64
  %30 = getelementptr inbounds [11 x ptr], ptr @CachedUserFolders, i64 0, i64 %29
  %31 = load ptr, ptr %30, align 8
  store ptr %31, ptr %2, align 8
  store i32 1, ptr %5, align 4
  br label %32

32:                                               ; preds = %27, %13
  call void @llvm.lifetime.end.p0(i64 4, ptr %4) #5
  %33 = load ptr, ptr %2, align 8
  ret ptr %33
}