; Function Attrs: nounwind uwtable
define hidden ptr @SDL_GetUserFolder_REAL(i32 noundef %0) local_unnamed_addr #0 {
  %2 = icmp ugt i32 %0, 10
  br i1 %2, label %3, label %5

3:                                                ; preds = %1
  %4 = tail call zeroext i1 (ptr, ...) @SDL_SetError_REAL(ptr noundef nonnull @.str, ptr noundef nonnull @.str.5) #8
  br label %11

5:                                                ; preds = %1
  %6 = zext nneg i32 %0 to i64
  %7 = getelementptr inbounds nuw [11 x ptr], ptr @CachedUserFolders, i64 0, i64 %6
  %8 = load ptr, ptr %7, align 8
  %.not = icmp eq ptr %8, null
  br i1 %.not, label %9, label %11

9:                                                ; preds = %5
  %10 = tail call ptr @SDL_SYS_GetUserFolder(i32 noundef %0) #8
  store ptr %10, ptr %7, align 8
  br label %11

11:                                               ; preds = %5, %9, %3
  %.0 = phi ptr [ null, %3 ], [ %10, %9 ], [ %8, %5 ]
  ret ptr %.0
}